target datalayout = "e-m:e-p270:32:32-p271:32:32-p272:64:64-i64:64-i128:128-f80:128-n8:16:32:64-S128"
target triple = "x86_64-pc-linux-gnu"

%class.InterpreterOopMap = type { ptr, i32, i32, i16, i32, [4 x i64] }
%class.OopMapCache = type { [32 x ptr] }

; Function Attrs: mustprogress nounwind uwtable
define linkonce_odr hidden noundef i32 @_ZNK17InterpreterOopMap9mask_sizeEv(ptr noundef nonnull align 8 dereferenceable(56) %0) #1 comdat align 2 {
  %2 = alloca ptr, align 8
  store ptr %0, ptr %2, align 8
  %3 = load ptr, ptr %2, align 8
  %4 = getelementptr inbounds %class.InterpreterOopMap, ptr %3, i32 0, i32 1
  %5 = load i32, ptr %4, align 8
  ret i32 %5
}

; Function Attrs: mustprogress nounwind uwtable
define hidden void @_ZN17InterpreterOopMap10initializeEv(ptr noundef nonnull align 8 dereferenceable(56) %0) #1 align 2 {
  %2 = alloca ptr, align 8
  %3 = alloca i32, align 4
  store ptr %0, ptr %2, align 8
  %4 = load ptr, ptr %2, align 8
  %5 = getelementptr inbounds %class.InterpreterOopMap, ptr %4, i32 0, i32 0
  store ptr null, ptr %5, align 8
  %6 = getelementptr inbounds %class.InterpreterOopMap, ptr %4, i32 0, i32 1
  store i32 65535, ptr %6, align 8
  %7 = getelementptr inbounds %class.InterpreterOopMap, ptr %4, i32 0, i32 3
  store i16 0, ptr %7, align 8
  %8 = getelementptr inbounds %class.InterpreterOopMap, ptr %4, i32 0, i32 2
  store i32 0, ptr %8, align 4
  %9 = getelementptr inbounds %class.InterpreterOopMap, ptr %4, i32 0, i32 4
  store i32 0, ptr %9, align 4
  store i32 0, ptr %3, align 4
  br label %10

10:                                               ; preds = %18, %1
  %11 = load i32, ptr %3, align 4
  %12 = icmp slt i32 %11, 4
  br i1 %12, label %13, label %21

13:                                               ; preds = %10
  %14 = getelementptr inbounds %class.InterpreterOopMap, ptr %4, i32 0, i32 5
  %15 = load i32, ptr %3, align 4
  %16 = sext i32 %15 to i64
  %17 = getelementptr inbounds [4 x i64], ptr %14, i64 0, i64 %16
  store i64 0, ptr %17, align 8
  br label %18

18:                                               ; preds = %13
  %19 = load i32, ptr %3, align 4
  %20 = add nsw i32 %19, 1
  store i32 %20, ptr %3, align 4
  br label %10, !llvm.loop !8

21:                                               ; preds = %10
  ret void
}

; Function Attrs: mustprogress nounwind uwtable
define hidden void @_ZN16OopMapCacheEntry19deallocate_bit_maskEv(ptr noundef nonnull align 8 dereferenceable(64) %0) #1 align 2 {
  %2 = alloca ptr, align 8
  store ptr %0, ptr %2, align 8
  %3 = load ptr, ptr %2, align 8
  %4 = call noundef i32 @_ZNK17InterpreterOopMap9mask_sizeEv(ptr noundef nonnull align 8 dereferenceable(56) %3)
  %5 = icmp sgt i32 %4, 256
  br i1 %5, label %6, label %16

6:                                                ; preds = %1
  %7 = getelementptr inbounds %class.InterpreterOopMap, ptr %3, i32 0, i32 5
  %8 = getelementptr inbounds [4 x i64], ptr %7, i64 0, i64 0
  %9 = load i64, ptr %8, align 8
  %10 = icmp ne i64 %9, 0
  br i1 %10, label %11, label %16

11:                                               ; preds = %6
  %12 = getelementptr inbounds %class.InterpreterOopMap, ptr %3, i32 0, i32 5
  %13 = getelementptr inbounds [4 x i64], ptr %12, i64 0, i64 0
  %14 = load i64, ptr %13, align 8
  %15 = inttoptr i64 %14 to ptr
  call void @_Z8FreeHeapPv(ptr noundef %15)
  br label %16

16:                                               ; preds = %11, %6, %1
  ret void
}

; Function Attrs: mustprogress nounwind uwtable
define hidden void @_ZN16OopMapCacheEntry5flushEv(ptr noundef nonnull align 8 dereferenceable(64) %0) #1 align 2 {
  %2 = alloca ptr, align 8
  store ptr %0, ptr %2, align 8
  %3 = load ptr, ptr %2, align 8
  call void @_ZN16OopMapCacheEntry19deallocate_bit_maskEv(ptr noundef nonnull align 8 dereferenceable(64) %3)
  call void @_ZN17InterpreterOopMap10initializeEv(ptr noundef nonnull align 8 dereferenceable(56) %3)
  ret void
}

; Function Attrs: mustprogress nounwind uwtable
define hidden void @_ZN16OopMapCacheEntry10deallocateEPS_(ptr noundef %0) #1 align 2 {
  %2 = alloca ptr, align 8
  store ptr %0, ptr %2, align 8
  %3 = load ptr, ptr %2, align 8
  call void @_ZN16OopMapCacheEntry5flushEv(ptr noundef nonnull align 8 dereferenceable(64) %3)
  %4 = load ptr, ptr %2, align 8
  call void @_Z8FreeHeapPv(ptr noundef %4)
  ret void
}

; Function Attrs: mustprogress nounwind uwtable
define hidden void @_ZN11OopMapCache5flushEv(ptr noundef nonnull align 8 dereferenceable(256) %0) #1 align 2 {
  %2 = alloca ptr, align 8
  %3 = alloca i32, align 4
  %4 = alloca ptr, align 8
  store ptr %0, ptr %2, align 8
  %5 = load ptr, ptr %2, align 8
  store i32 0, ptr %3, align 4
  br label %6

6:                                                ; preds = %24, %1
  %7 = load i32, ptr %3, align 4
  %8 = icmp slt i32 %7, 32
  br i1 %8, label %9, label %27

9:                                                ; preds = %6
  %10 = getelementptr inbounds %class.OopMapCache, ptr %5, i32 0, i32 0
  %11 = load i32, ptr %3, align 4
  %12 = sext i32 %11 to i64
  %13 = getelementptr inbounds [32 x ptr], ptr %10, i64 0, i64 %12
  %14 = load volatile ptr, ptr %13, align 8
  store ptr %14, ptr %4, align 8
  %15 = load ptr, ptr %4, align 8
  %16 = icmp ne ptr %15, null
  br i1 %16, label %17, label %23

17:                                               ; preds = %9
  %18 = getelementptr inbounds %class.OopMapCache, ptr %5, i32 0, i32 0
  %19 = load i32, ptr %3, align 4
  %20 = sext i32 %19 to i64
  %21 = getelementptr inbounds [32 x ptr], ptr %18, i64 0, i64 %20
  store volatile ptr null, ptr %21, align 8
  %22 = load ptr, ptr %4, align 8
  call void @_ZN16OopMapCacheEntry10deallocateEPS_(ptr noundef %22)
  br label %23

23:                                               ; preds = %17, %9
  br label %24

24:                                               ; preds = %23
  %25 = load i32, ptr %3, align 4
  %26 = add nsw i32 %25, 1
  store i32 %26, ptr %3, align 4
  br label %6, !llvm.loop !15

27:                                               ; preds = %6
  ret void
}

; Function Attrs: mustprogress nounwind uwtable
define hidden void @_ZN11OopMapCacheD2Ev(ptr noundef nonnull align 8 dereferenceable(256) %0) unnamed_addr #1 align 2 {
  %2 = alloca ptr, align 8
  store ptr %0, ptr %2, align 8
  %3 = load ptr, ptr %2, align 8
  call void @_ZN11OopMapCache5flushEv(ptr noundef nonnull align 8 dereferenceable(256) %3)
  ret void
}