; Function Attrs: mustprogress nounwind uwtable
define hidden void @_ZN11OopMapCacheD2Ev(ptr noundef nonnull align 8 dereferenceable(256) %0) unnamed_addr #0 align 2 {
  br label %2

2:                                                ; preds = %17, %1
  %indvars.iv.i = phi i64 [ 0, %1 ], [ %indvars.iv.next.i, %17 ]
  %3 = getelementptr inbounds [32 x ptr], ptr %0, i64 0, i64 %indvars.iv.i
  %4 = load volatile ptr, ptr %3, align 8
  %.not.i = icmp eq ptr %4, null
  br i1 %.not.i, label %17, label %5

5:                                                ; preds = %2
  store volatile ptr null, ptr %3, align 8
  %6 = getelementptr inbounds i8, ptr %4, i64 8
  %7 = load i32, ptr %6, align 8
  %8 = icmp sgt i32 %7, 256
  br i1 %8, label %9, label %_ZN16OopMapCacheEntry10deallocateEPS_.exit.i

9:                                                ; preds = %5
  %10 = getelementptr inbounds i8, ptr %4, i64 24
  %11 = load i64, ptr %10, align 8
  %.not.i.i.i.i = icmp eq i64 %11, 0
  br i1 %.not.i.i.i.i, label %_ZN16OopMapCacheEntry10deallocateEPS_.exit.i, label %12

12:                                               ; preds = %9
  %13 = inttoptr i64 %11 to ptr
  tail call void @_Z8FreeHeapPv(ptr noundef nonnull %13) #17
  br label %_ZN16OopMapCacheEntry10deallocateEPS_.exit.i

_ZN16OopMapCacheEntry10deallocateEPS_.exit.i:     ; preds = %12, %9, %5
  store ptr null, ptr %4, align 8
  store i32 65535, ptr %6, align 8
  %14 = getelementptr inbounds i8, ptr %4, i64 16
  store i16 0, ptr %14, align 8
  %15 = getelementptr inbounds i8, ptr %4, i64 12
  store i32 0, ptr %15, align 4
  %16 = getelementptr inbounds i8, ptr %4, i64 20
  tail call void @llvm.memset.p0.i64(ptr noundef nonnull align 4 dereferenceable(36) %16, i8 0, i64 36, i1 false)
  tail call void @_Z8FreeHeapPv(ptr noundef nonnull %4) #17
  br label %17

17:                                               ; preds = %_ZN16OopMapCacheEntry10deallocateEPS_.exit.i, %2
  %indvars.iv.next.i = add nuw nsw i64 %indvars.iv.i, 1
  %exitcond.not.i = icmp eq i64 %indvars.iv.next.i, 32
  br i1 %exitcond.not.i, label %_ZN11OopMapCache5flushEv.exit, label %2, !llvm.loop !14

_ZN11OopMapCache5flushEv.exit:                    ; preds = %17
  ret void
}